target datalayout = "e-m:e-p270:32:32-p271:32:32-p272:64:64-i64:64-i128:128-f80:128-n8:16:32:64-S128"
target triple = "x86_64-pc-linux-gnu"

%struct.random_device = type { i32, i64, i64, i32, i64 }

@random_devices = internal global [4 x %struct.random_device] zeroinitializer, align 16

; Function Attrs: nounwind uwtable
define i32 @ossl_rand_pool_init() #0 {
  %1 = alloca i64, align 8
  call void @llvm.lifetime.start.p0(i64 8, ptr %1) #8
  store i64 0, ptr %1, align 8, !tbaa !3
  br label %2

2:                                                ; preds = %9, %0
  %3 = load i64, ptr %1, align 8, !tbaa !3
  %4 = icmp ult i64 %3, 4
  br i1 %4, label %5, label %12

5:                                                ; preds = %2
  %6 = load i64, ptr %1, align 8, !tbaa !3
  %7 = getelementptr inbounds nuw [4 x %struct.random_device], ptr @random_devices, i64 0, i64 %6
  %8 = getelementptr inbounds nuw %struct.random_device, ptr %7, i32 0, i32 0
  store i32 -1, ptr %8, align 8, !tbaa !7
  br label %9

9:                                                ; preds = %5
  %10 = load i64, ptr %1, align 8, !tbaa !3
  %11 = add i64 %10, 1
  store i64 %11, ptr %1, align 8, !tbaa !3
  br label %2, !llvm.loop !10

12:                                               ; preds = %2
  call void @llvm.lifetime.end.p0(i64 8, ptr %1) #8
  ret i32 1
}