; Function Attrs: nofree norecurse nosync nounwind memory(write, argmem: none, inaccessiblemem: none) uwtable
define noundef i32 @ossl_rand_pool_init() local_unnamed_addr #0 {
  br label %1

1:                                                ; preds = %0, %1
  %.03 = phi i64 [ 0, %0 ], [ %3, %1 ]
  %2 = getelementptr inbounds nuw [4 x %struct.random_device], ptr @random_devices, i64 0, i64 %.03
  store i32 -1, ptr %2, align 8, !tbaa !3
  %3 = add nuw nsw i64 %.03, 1
  %exitcond.not = icmp eq i64 %3, 4
  br i1 %exitcond.not, label %4, label %1, !llvm.loop !9

4:                                                ; preds = %1
  ret i32 1
}